/* Static Analysis of PersistentObfuscated.elf */
/* Output of `objdump -d PersistentObfuscated.elf | head -100` */

PersistentObfuscated.elf:     file format elf64-x86-64


Disassembly of section .init:

0000000000401000 <_init>:
  401000:	f3 0f 1e fa          	endbr64
  401004:	48 83 ec 08          	sub    $0x8,%rsp
  401008:	48 c7 c0 00 00 00 00 	mov    $0x0,%rax
  40100f:	48 85 c0             	test   %rax,%rax
  401012:	74 02                	je     401016 <_init+0x16>
  401014:	ff d0                	call   *%rax
  401016:	e8 c5 dd 15 00       	call   55ede0 <OPENSSL_cpuid_setup>
  40101b:	48 83 c4 08          	add    $0x8,%rsp
  40101f:	c3                   	ret

Disassembly of section .plt:

0000000000401020 <.plt>:
  401020:	f3 0f 1e fa          	endbr64
  401024:	ff 25 d6 2f 60 00    	jmp    *0x602fd6(%rip)        # a04000 <_GLOBAL_OFFSET_TABLE_+0x18>
  40102a:	66 0f 1f 44 00 00    	nopw   0x0(%rax,%rax,1)
  401030:	f3 0f 1e fa          	endbr64
  401034:	ff 25 ce 2f 60 00    	jmp    *0x602fce(%rip)        # a04008 <_GLOBAL_OFFSET_TABLE_+0x20>
  40103a:	66 0f 1f 44 00 00    	nopw   0x0(%rax,%rax,1)
  401040:	f3 0f 1e fa          	endbr64
  401044:	ff 25 c6 2f 60 00    	jmp    *0x602fc6(%rip)        # a04010 <_GLOBAL_OFFSET_TABLE_+0x28>
  40104a:	66 0f 1f 44 00 00    	nopw   0x0(%rax,%rax,1)
  401050:	f3 0f 1e fa          	endbr64
  401054:	ff 25 be 2f 60 00    	jmp    *0x602fbe(%rip)        # a04018 <_GLOBAL_OFFSET_TABLE_+0x30>
  40105a:	66 0f 1f 44 00 00    	nopw   0x0(%rax,%rax,1)
  401060:	f3 0f 1e fa          	endbr64
  401064:	ff 25 b6 2f 60 00    	jmp    *0x602fb6(%rip)        # a04020 <_GLOBAL_OFFSET_TABLE_+0x38>
  40106a:	66 0f 1f 44 00 00    	nopw   0x0(%rax,%rax,1)
  401070:	f3 0f 1e fa          	endbr64
  401074:	ff 25 ae 2f 60 00    	jmp    *0x602fae(%rip)        # a04028 <_GLOBAL_OFFSET_TABLE_+0x40>
  40107a:	66 0f 1f 44 00 00    	nopw   0x0(%rax,%rax,1)
  401080:	f3 0f 1e fa          	endbr64
  401084:	ff 25 a6 2f 60 00    	jmp    *0x602fa6(%rip)        # a04030 <_GLOBAL_OFFSET_TABLE_+0x48>
  40108a:	66 0f 1f 44 00 00    	nopw   0x0(%rax,%rax,1)
  401090:	f3 0f 1e fa          	endbr64
  401094:	ff 25 9e 2f 60 00    	jmp    *0x602f9e(%rip)        # a04038 <_GLOBAL_OFFSET_TABLE_+0x50>
  40109a:	66 0f 1f 44 00 00    	nopw   0x0(%rax,%rax,1)
  4010a0:	f3 0f 1e fa          	endbr64
  4010a4:	ff 25 96 2f 60 00    	jmp    *0x602f96(%rip)        # a04040 <_GLOBAL_OFFSET_TABLE_+0x58>
  4010aa:	66 0f 1f 44 00 00    	nopw   0x0(%rax,%rax,1)
  4010b0:	f3 0f 1e fa          	endbr64
  4010b4:	ff 25 8e 2f 60 00    	jmp    *0x602f8e(%rip)        # a04048 <_GLOBAL_OFFSET_TABLE_+0x60>
  4010ba:	66 0f 1f 44 00 00    	nopw   0x0(%rax,%rax,1)
  4010c0:	f3 0f 1e fa          	endbr64
  4010c4:	ff 25 86 2f 60 00    	jmp    *0x602f86(%rip)        # a04050 <_GLOBAL_OFFSET_TABLE_+0x68>
  4010ca:	66 0f 1f 44 00 00    	nopw   0x0(%rax,%rax,1)
  4010d0:	f3 0f 1e fa          	endbr64
  4010d4:	ff 25 7e 2f 60 00    	jmp    *0x602f7e(%rip)        # a04058 <_GLOBAL_OFFSET_TABLE_+0x70>
  4010da:	66 0f 1f 44 00 00    	nopw   0x0(%rax,%rax,1)
  4010e0:	f3 0f 1e fa          	endbr64
  4010e4:	ff 25 76 2f 60 00    	jmp    *0x602f76(%rip)        # a04060 <_GLOBAL_OFFSET_TABLE_+0x78>
  4010ea:	66 0f 1f 44 00 00    	nopw   0x0(%rax,%rax,1)
  4010f0:	f3 0f 1e fa          	endbr64
  4010f4:	ff 25 6e 2f 60 00    	jmp    *0x602f6e(%rip)        # a04068 <_GLOBAL_OFFSET_TABLE_+0x80>
  4010fa:	66 0f 1f 44 00 00    	nopw   0x0(%rax,%rax,1)
  401100:	f3 0f 1e fa          	endbr64
  401104:	ff 25 66 2f 60 00    	jmp    *0x602f66(%rip)        # a04070 <_GLOBAL_OFFSET_TABLE_+0x88>
  40110a:	66 0f 1f 44 00 00    	nopw   0x0(%rax,%rax,1)
  401110:	f3 0f 1e fa          	endbr64
  401114:	ff 25 5e 2f 60 00    	jmp    *0x602f5e(%rip)        # a04078 <_GLOBAL_OFFSET_TABLE_+0x90>
  40111a:	66 0f 1f 44 00 00    	nopw   0x0(%rax,%rax,1)
  401120:	f3 0f 1e fa          	endbr64
  401124:	ff 25 56 2f 60 00    	jmp    *0x602f56(%rip)        # a04080 <_GLOBAL_OFFSET_TABLE_+0x98>
  40112a:	66 0f 1f 44 00 00    	nopw   0x0(%rax,%rax,1)
  401130:	f3 0f 1e fa          	endbr64
  401134:	ff 25 4e 2f 60 00    	jmp    *0x602f4e(%rip)        # a04088 <_GLOBAL_OFFSET_TABLE_+0xa0>
  40113a:	66 0f 1f 44 00 00    	nopw   0x0(%rax,%rax,1)
  401140:	f3 0f 1e fa          	endbr64
  401144:	ff 25 46 2f 60 00    	jmp    *0x602f46(%rip)        # a04090 <_GLOBAL_OFFSET_TABLE_+0xa8>
  40114a:	66 0f 1f 44 00 00    	nopw   0x0(%rax,%rax,1)
  401150:	f3 0f 1e fa          	endbr64
  401154:	ff 25 3e 2f 60 00    	jmp    *0x602f3e(%rip)        # a04098 <_GLOBAL_OFFSET_TABLE_+0xb0>
  40115a:	66 0f 1f 44 00 00    	nopw   0x0(%rax,%rax,1)
  401160:	f3 0f 1e fa          	endbr64
  401164:	ff 25 36 2f 60 00    	jmp    *0x602f36(%rip)        # a040a0 <_GLOBAL_OFFSET_TABLE_+0xb8>
  40116a:	66 0f 1f 44 00 00    	nopw   0x0(%rax,%rax,1)
  401170:	f3 0f 1e fa          	endbr64
  401174:	ff 25 2e 2f 60 00    	jmp    *0x602f2e(%rip)        # a040a8 <_GLOBAL_OFFSET_TABLE_+0xc0>
  40117a:	66 0f 1f 44 00 00    	nopw   0x0(%rax,%rax,1)
  401180:	f3 0f 1e fa          	endbr64
  401184:	ff 25 26 2f 60 00    	jmp    *0x602f26(%rip)        # a040b0 <_GLOBAL_OFFSET_TABLE_+0xc8>
  40118a:	66 0f 1f 44 00 00    	nopw   0x0(%rax,%rax,1)
  401190:	f3 0f 1e fa          	endbr64
  401194:	ff 25 1e 2f 60 00    	jmp    *0x602f1e(%rip)        # a040b8 <_GLOBAL_OFFSET_TABLE_+0xd0>
  40119a:	66 0f 1f 44 00 00    	nopw   0x0(%rax,%rax,1)
  4011a0:	f3 0f 1e fa          	endbr64
  4011a4:	ff 25 16 2f 60 00    	jmp    *0x602f16(%rip)        # a040c0 <_GLOBAL_OFFSET_TABLE_+0xd8>
  4011aa:	66 0f 1f 44 00 00    	nopw   0x0(%rax,%rax,1)
  4011b0:	f3 0f 1e fa          	endbr64
  4011b4:	ff 25 0e 2f 60 00    	jmp    *0x602f0e(%rip)        # a040c8 <_GLOBAL_OFFSET_TABLE_+0xe0>
  4011ba:	66 0f 1f 44 00 00    	nopw   0x0(%rax,%rax,1)
  4011c0:	f3 0f 1e fa          	endbr64
  4011c4:	ff 25 06 2f 60 00    	jmp    *0x602f06(%rip)        # a040d0 <_GLOBAL_OFFSET_TABLE_+0xe8>
